; Function Attrs: nounwind sspstrong uwtable
define internal fastcc ptr @address_space_translate_cached(ptr noundef readonly captures(none) %cache, i64 noundef %addr, ptr noundef nonnull captures(none) %xlat, ptr noundef nonnull captures(none) %plen, i1 noundef zeroext %is_write, i32 %attrs.coerce) unnamed_addr #0 {
entry:
  %tmp.i = alloca %struct.IOMMUTLBEntry, align 8
  %0 = load ptr, ptr %cache, align 16
  %tobool.not = icmp eq ptr %0, null
  br i1 %tobool.not, label %if.end, label %if.else

if.else:                                          ; preds = %entry
  tail call void @__assert_fail(ptr noundef nonnull @.str.127, ptr noundef nonnull @.str.1, i32 noundef 3324, ptr noundef nonnull @__PRETTY_FUNCTION__.address_space_translate_cached) #27
  unreachable

if.end:                                           ; preds = %entry
  %xlat1 = getelementptr inbounds nuw i8, ptr %cache, i64 8
  %1 = load i64, ptr %xlat1, align 8
  %add = add i64 %1, %addr
  store i64 %add, ptr %xlat, align 8
  %mr2 = getelementptr inbounds nuw i8, ptr %cache, i64 48
  %2 = load ptr, ptr %mr2, align 16
  br label %tailrecurse.i

tailrecurse.i:                                    ; preds = %tailrecurse.i, %if.end
  %mr.tr.i = phi ptr [ %2, %if.end ], [ %3, %tailrecurse.i ]
  %alias.i = getelementptr inbounds nuw i8, ptr %mr.tr.i, i64 160
  %3 = load ptr, ptr %alias.i, align 16
  %tobool.not.i = icmp eq ptr %3, null
  br i1 %tobool.not.i, label %memory_region_get_iommu.exit, label %tailrecurse.i

memory_region_get_iommu.exit:                     ; preds = %tailrecurse.i
  %is_iommu.i = getelementptr inbounds nuw i8, ptr %mr.tr.i, i64 49
  %4 = load i8, ptr %is_iommu.i, align 1
  %tobool2.i = trunc i8 %4 to i1
  br i1 %tobool2.i, label %if.end5, label %return

if.end5:                                          ; preds = %memory_region_get_iommu.exit
  call void @llvm.lifetime.start.p0(i64 40, ptr nonnull %tmp.i)
  %cond.i = select i1 %is_write, i32 2, i32 1
  %iotlb.sroa.8.0.tmp.sroa_idx.i = getelementptr inbounds nuw i8, ptr %tmp.i, i64 32
  %conv.i = zext i1 %is_write to i32
  %shl.i = shl nuw nsw i32 1, %conv.i
  %iotlb.sroa.4.0.tmp.sroa_idx.i = getelementptr inbounds nuw i8, ptr %tmp.i, i64 24
  %iotlb.sroa.34.0.tmp.sroa_idx.i = getelementptr inbounds nuw i8, ptr %tmp.i, i64 16
  br label %do.body.i

do.body.i:                                        ; preds = %memory_region_get_iommu.exit.i, %if.end5
  %iommu_mr.addr.0.i = phi ptr [ %mr.tr.i, %if.end5 ], [ %mr.tr.i.i, %memory_region_get_iommu.exit.i ]
  %5 = load i64, ptr %xlat, align 8, !noalias !77
  %iommu_mr.addr.0.val.i = load ptr, ptr %iommu_mr.addr.0.i, align 8, !noalias !77
  %attrs_to_index.i = getelementptr inbounds nuw i8, ptr %iommu_mr.addr.0.val.i, i64 136
  %6 = load ptr, ptr %attrs_to_index.i, align 8, !noalias !77
  %tobool.not.i6 = icmp eq ptr %6, null
  br i1 %tobool.not.i6, label %if.end.i, label %if.then.i

if.then.i:                                        ; preds = %do.body.i
  %call4.i = call i32 %6(ptr noundef nonnull %iommu_mr.addr.0.i, i32 %attrs.coerce) #28, !noalias !77
  br label %if.end.i

if.end.i:                                         ; preds = %if.then.i, %do.body.i
  %iommu_idx.0.i = phi i32 [ %call4.i, %if.then.i ], [ 0, %do.body.i ]
  %translate.i = getelementptr inbounds nuw i8, ptr %iommu_mr.addr.0.val.i, i64 96
  %7 = load ptr, ptr %translate.i, align 8, !noalias !77
  call void %7(ptr nonnull sret(%struct.IOMMUTLBEntry) align 8 %tmp.i, ptr noundef nonnull %iommu_mr.addr.0.i, i64 noundef %5, i32 noundef %cond.i, i32 noundef %iommu_idx.0.i) #28, !noalias !77
  %iotlb.sroa.8.0.copyload.i = load i32, ptr %iotlb.sroa.8.0.tmp.sroa_idx.i, align 8, !noalias !77
  %and.i = and i32 %iotlb.sroa.8.0.copyload.i, %shl.i
  %tobool7.not.i = icmp eq i32 %and.i, 0
  br i1 %tobool7.not.i, label %address_space_translate_iommu.exit, label %if.end9.i

if.end9.i:                                        ; preds = %if.end.i
  %iotlb.sroa.4.0.copyload.i = load i64, ptr %iotlb.sroa.4.0.tmp.sroa_idx.i, align 8, !noalias !77
  %iotlb.sroa.34.0.copyload.i = load i64, ptr %iotlb.sroa.34.0.tmp.sroa_idx.i, align 8, !noalias !77
  %iotlb.sroa.0.0.copyload.i = load ptr, ptr %tmp.i, align 8, !noalias !77
  %not.i = xor i64 %iotlb.sroa.4.0.copyload.i, -1
  %and10.i = and i64 %iotlb.sroa.34.0.copyload.i, %not.i
  %and12.i = and i64 %iotlb.sroa.4.0.copyload.i, %5
  %or.i = or i64 %and10.i, %and12.i
  %8 = load i64, ptr %plen, align 8, !noalias !77
  %or16.i = or i64 %iotlb.sroa.34.0.copyload.i, %iotlb.sroa.4.0.copyload.i
  %sub.i = add i64 %or16.i, 1
  %add.i = sub i64 %sub.i, %or.i
  %cond19.i = call i64 @llvm.umin.i64(i64 %8, i64 %add.i)
  store i64 %cond19.i, ptr %plen, align 8, !noalias !77
  %current_map.i.i.i = getelementptr inbounds nuw i8, ptr %iotlb.sroa.0.0.copyload.i, i64 32
  %9 = load atomic i64, ptr %current_map.i.i.i monotonic, align 8, !noalias !77
  %10 = inttoptr i64 %9 to ptr
  call void asm sideeffect "", "~{memory},~{dirflag},~{fpsr},~{flags}"() #28, !noalias !77, !srcloc !7
  %11 = getelementptr i8, ptr %10, i64 40
  %call.val.i.i = load ptr, ptr %11, align 8, !noalias !77
  %call24.i = call fastcc ptr @address_space_translate_internal(ptr noundef %call.val.i.i, i64 noundef %or.i, ptr noundef nonnull %xlat, ptr noundef nonnull %plen, i1 noundef zeroext true), !noalias !77
  %mr.i = getelementptr inbounds nuw i8, ptr %call24.i, i64 16
  %12 = load ptr, ptr %mr.i, align 16, !noalias !77
  br label %tailrecurse.i.i

tailrecurse.i.i:                                  ; preds = %tailrecurse.i.i, %if.end9.i
  %mr.tr.i.i = phi ptr [ %12, %if.end9.i ], [ %13, %tailrecurse.i.i ]
  %alias.i.i = getelementptr inbounds nuw i8, ptr %mr.tr.i.i, i64 160
  %13 = load ptr, ptr %alias.i.i, align 16, !noalias !77
  %tobool.not.i.i = icmp eq ptr %13, null
  br i1 %tobool.not.i.i, label %memory_region_get_iommu.exit.i, label %tailrecurse.i.i

memory_region_get_iommu.exit.i:                   ; preds = %tailrecurse.i.i
  %is_iommu.i.i = getelementptr inbounds nuw i8, ptr %mr.tr.i.i, i64 49
  %14 = load i8, ptr %is_iommu.i.i, align 1, !noalias !77
  %tobool2.i.i = trunc i8 %14 to i1
  br i1 %tobool2.i.i, label %do.body.i, label %address_space_translate_iommu.exit, !llvm.loop !11

address_space_translate_iommu.exit:               ; preds = %if.end.i, %memory_region_get_iommu.exit.i
  %tmp.sroa.2.0 = phi ptr [ %12, %memory_region_get_iommu.exit.i ], [ @io_mem_unassigned, %if.end.i ]
  call void @llvm.lifetime.end.p0(i64 40, ptr nonnull %tmp.i)
  br label %return

return:                                           ; preds = %memory_region_get_iommu.exit, %address_space_translate_iommu.exit
  %retval.0 = phi ptr [ %tmp.sroa.2.0, %address_space_translate_iommu.exit ], [ %2, %memory_region_get_iommu.exit ]
  ret ptr %retval.0
}